; Function Attrs: null_pointer_is_valid sspstrong uwtable
define hidden void @proto_register_btmesh_beacon() local_unnamed_addr #0 {
  %1 = tail call i32 @proto_register_protocol(ptr noundef nonnull @.str.55, ptr noundef nonnull @.str.56, ptr noundef nonnull @.str.57)
  store i32 %1, ptr @proto_btmesh_beacon, align 4
  tail call void @proto_register_field_array(i32 noundef %1, ptr noundef nonnull @proto_register_btmesh_beacon.hf, i32 noundef 25)
  tail call void @proto_register_subtree_array(ptr noundef nonnull @proto_register_btmesh_beacon.ett, i32 noundef 3)
  %2 = load i32, ptr @proto_btmesh_beacon, align 4
  %3 = tail call ptr @expert_register_protocol(i32 noundef %2)
  tail call void @expert_register_field_array(ptr noundef %3, ptr noundef nonnull @proto_register_btmesh_beacon.ei, i32 noundef 3)
  %4 = load i32, ptr @proto_btmesh_beacon, align 4
  %5 = tail call ptr @prefs_register_protocol_subtree(ptr noundef nonnull @.str.58, i32 noundef %4, ptr noundef null)
  %6 = load i32, ptr @proto_btmesh_beacon, align 4
  %7 = tail call ptr @register_dissector(ptr noundef nonnull @.str.59, ptr noundef nonnull @dissect_btmesh_beacon_msg, i32 noundef %6)
  ret void
}